target datalayout = "e-m:e-p270:32:32-p271:32:32-p272:64:64-i64:64-i128:128-f80:128-n8:16:32:64-S128"
target triple = "x86_64-pc-linux-gnu"

@.str.14 = private unnamed_addr constant [20 x i8] c"bad %s argument: %s\00", align 1

; Function Attrs: nounwind uwtable
define internal i32 @parse_update_recurse(ptr noundef %0, ptr noundef %1, i32 noundef %2) #0 {
  %4 = alloca i32, align 4
  %5 = alloca ptr, align 8
  %6 = alloca ptr, align 8
  %7 = alloca i32, align 4
  store ptr %0, ptr %5, align 8, !tbaa !13
  store ptr %1, ptr %6, align 8, !tbaa !13
  store i32 %2, ptr %7, align 4, !tbaa !17
  %8 = load ptr, ptr %6, align 8, !tbaa !13
  %9 = call i32 @git_parse_maybe_bool(ptr noundef %8)
  switch i32 %9, label %12 [
    i32 1, label %10
    i32 0, label %11
  ]

10:                                               ; preds = %3
  store i32 2, ptr %4, align 4
  br label %19

11:                                               ; preds = %3
  store i32 0, ptr %4, align 4
  br label %19

12:                                               ; preds = %3
  %13 = load i32, ptr %7, align 4, !tbaa !17
  %14 = icmp ne i32 %13, 0
  br i1 %14, label %15, label %18

15:                                               ; preds = %12
  %16 = load ptr, ptr %5, align 8, !tbaa !13
  %17 = load ptr, ptr %6, align 8, !tbaa !13
  call void (ptr, ...) @die(ptr noundef @.str.14, ptr noundef %16, ptr noundef %17) #11
  unreachable

18:                                               ; preds = %12
  store i32 -3, ptr %4, align 4
  br label %19

19:                                               ; preds = %18, %11, %10
  %20 = load i32, ptr %4, align 4
  ret i32 %20
}

; Function Attrs: nounwind uwtable
define dso_local i32 @parse_update_recurse_submodules_arg(ptr noundef %0, ptr noundef %1) #0 {
  %3 = alloca ptr, align 8
  %4 = alloca ptr, align 8
  store ptr %0, ptr %3, align 8, !tbaa !13
  store ptr %1, ptr %4, align 8, !tbaa !13
  %5 = load ptr, ptr %3, align 8, !tbaa !13
  %6 = load ptr, ptr %4, align 8, !tbaa !13
  %7 = call i32 @parse_update_recurse(ptr noundef %5, ptr noundef %6, i32 noundef 1)
  ret i32 %7
}