; Function Attrs: nounwind uwtable
define dso_local range(i32 0, 3) i32 @parse_update_recurse_submodules_arg(ptr noundef %0, ptr noundef %1) local_unnamed_addr #0 {
  %3 = tail call i32 @git_parse_maybe_bool(ptr noundef %1) #15
  switch i32 %3, label %5 [
    i32 1, label %parse_update_recurse.exit
    i32 0, label %4
  ]

4:                                                ; preds = %2
  br label %parse_update_recurse.exit

5:                                                ; preds = %2
  tail call void (ptr, ...) @die(ptr noundef nonnull @.str.14, ptr noundef %0, ptr noundef %1) #17
  unreachable

parse_update_recurse.exit:                        ; preds = %2, %4
  %.0.i = phi i32 [ 0, %4 ], [ 2, %2 ]
  ret i32 %.0.i
}